target datalayout = "e-m:e-p270:32:32-p271:32:32-p272:64:64-i64:64-i128:128-f80:128-n8:16:32:64-S128"
target triple = "x86_64-pc-linux-gnu"

%"class.pbrt::Medium" = type { %"class.pbrt::TaggedPointer" }
%"class.pbrt::TaggedPointer" = type { i64 }
%"struct.pbrt::MediumInterface" = type { %"class.pbrt::Medium", %"class.pbrt::Medium" }
%"class.pstd::pmr::polymorphic_allocator" = type { ptr }
%"class.pbrt::FloatTexture" = type { %"class.pbrt::TaggedPointer.81" }
%"class.pbrt::TaggedPointer.81" = type { i64 }
%"class.pbrt::Shape" = type { %"class.pbrt::TaggedPointer.80" }
%"class.pbrt::TaggedPointer.80" = type { i64 }
%"class.pbrt::TaggedPointer.102" = type { i64 }
%"class.pbrt::Light" = type { %"class.pbrt::TaggedPointer.102" }
%"class.pbrt::ParameterDictionary" = type <{ %"class.pbrt::InlinedVector", ptr, i32, [4 x i8] }>
%"class.pbrt::InlinedVector" = type { %"class.pstd::pmr::polymorphic_allocator.27", ptr, %union.anon.28, i64, i64 }
%"class.pstd::pmr::polymorphic_allocator.27" = type { ptr }
%union.anon.28 = type { [8 x ptr] }

@.str.98 = private unnamed_addr constant [8 x i8] c"diffuse\00", align 1
@.str.99 = private unnamed_addr constant [29 x i8] c"%s: area light type unknown.\00", align 1
@.str.100 = private unnamed_addr constant [33 x i8] c"%s: unable to create area light.\00", align 1

; Function Attrs: mustprogress nounwind uwtable
define linkonce_odr dso_local noundef nonnull align 8 dereferenceable(8) ptr @_ZN4pbrt13TaggedPointerIJNS_10PointLightENS_12DistantLightENS_15ProjectionLightENS_16GoniometricLightENS_9SpotLightENS_16DiffuseAreaLightENS_20UniformInfiniteLightENS_18ImageInfiniteLightENS_24PortalImageInfiniteLightEEEaSERKSA_(ptr noundef nonnull align 8 dereferenceable(8) %0, ptr noundef nonnull align 8 dereferenceable(8) %1) #6 comdat align 2 {
  %3 = alloca ptr, align 8
  %4 = alloca ptr, align 8
  store ptr %0, ptr %3, align 8, !tbaa !477
  store ptr %1, ptr %4, align 8, !tbaa !477
  %5 = load ptr, ptr %3, align 8
  %6 = load ptr, ptr %4, align 8, !tbaa !477
  %7 = getelementptr inbounds nuw %"class.pbrt::TaggedPointer.102", ptr %6, i32 0, i32 0
  %8 = load i64, ptr %7, align 8, !tbaa !481
  %9 = getelementptr inbounds nuw %"class.pbrt::TaggedPointer.102", ptr %5, i32 0, i32 0
  store i64 %8, ptr %9, align 8, !tbaa !481
  ret ptr %5
}

; Function Attrs: mustprogress nounwind uwtable
define linkonce_odr dso_local void @_ZN4pbrt13TaggedPointerIJNS_10PointLightENS_12DistantLightENS_15ProjectionLightENS_16GoniometricLightENS_9SpotLightENS_16DiffuseAreaLightENS_20UniformInfiniteLightENS_18ImageInfiniteLightENS_24PortalImageInfiniteLightEEEC2IS6_EEPT_(ptr noundef nonnull align 8 dereferenceable(8) %0, ptr noundef %1) unnamed_addr #6 comdat align 2 {
  %3 = alloca ptr, align 8
  %4 = alloca ptr, align 8
  %5 = alloca i64, align 8
  %6 = alloca i32, align 4
  store ptr %0, ptr %3, align 8, !tbaa !477
  store ptr %1, ptr %4, align 8, !tbaa !336
  %7 = load ptr, ptr %3, align 8
  %8 = getelementptr inbounds nuw %"class.pbrt::TaggedPointer.102", ptr %7, i32 0, i32 0
  store i64 0, ptr %8, align 8, !tbaa !481
  call void @llvm.lifetime.start.p0(i64 8, ptr %5) #22
  %9 = load ptr, ptr %4, align 8, !tbaa !336
  %10 = ptrtoint ptr %9 to i64
  store i64 %10, ptr %5, align 8, !tbaa !54
  br label %11

11:                                               ; preds = %2
  br label %12

12:                                               ; preds = %11
  br label %13

13:                                               ; preds = %12
  call void @llvm.lifetime.start.p0(i64 4, ptr %6) #22
  store i32 6, ptr %6, align 4, !tbaa !61
  %14 = load i64, ptr %5, align 8, !tbaa !54
  %15 = or i64 %14, 864691128455135232
  %16 = getelementptr inbounds nuw %"class.pbrt::TaggedPointer.102", ptr %7, i32 0, i32 0
  store i64 %15, ptr %16, align 8, !tbaa !481
  call void @llvm.lifetime.end.p0(i64 4, ptr %6) #22
  call void @llvm.lifetime.end.p0(i64 8, ptr %5) #22
  ret void
}

; Function Attrs: mustprogress nounwind uwtable
define linkonce_odr dso_local void @_ZN4pbrt13TaggedPointerIJNS_17FloatImageTextureENS_20GPUFloatImageTextureENS_15FloatMixTextureENS_24FloatDirectionMixTextureENS_18FloatScaledTextureENS_20FloatConstantTextureENS_18FloatBilerpTextureENS_24FloatCheckerboardTextureENS_16FloatDotsTextureENS_10FBmTextureENS_16FloatPtexTextureENS_19GPUFloatPtexTextureENS_12WindyTextureENS_15WrinkledTextureEEEC2ERKSF_(ptr noundef nonnull align 8 dereferenceable(8) %0, ptr noundef nonnull align 8 dereferenceable(8) %1) unnamed_addr #6 comdat align 2 {
  %3 = alloca ptr, align 8
  %4 = alloca ptr, align 8
  store ptr %0, ptr %3, align 8, !tbaa !887
  store ptr %1, ptr %4, align 8, !tbaa !887
  %5 = load ptr, ptr %3, align 8
  %6 = getelementptr inbounds nuw %"class.pbrt::TaggedPointer.81", ptr %5, i32 0, i32 0
  store i64 0, ptr %6, align 8, !tbaa !899
  %7 = load ptr, ptr %4, align 8, !tbaa !887
  %8 = getelementptr inbounds nuw %"class.pbrt::TaggedPointer.81", ptr %7, i32 0, i32 0
  %9 = load i64, ptr %8, align 8, !tbaa !899
  %10 = getelementptr inbounds nuw %"class.pbrt::TaggedPointer.81", ptr %5, i32 0, i32 0
  store i64 %9, ptr %10, align 8, !tbaa !899
  ret void
}

; Function Attrs: mustprogress nounwind uwtable
define linkonce_odr dso_local void @_ZN4pbrt13TaggedPointerIJNS_6SphereENS_8CylinderENS_4DiskENS_8TriangleENS_13BilinearPatchENS_5CurveEEEC2ERKS7_(ptr noundef nonnull align 8 dereferenceable(8) %0, ptr noundef nonnull align 8 dereferenceable(8) %1) unnamed_addr #6 comdat align 2 {
  %3 = alloca ptr, align 8
  %4 = alloca ptr, align 8
  store ptr %0, ptr %3, align 8, !tbaa !358
  store ptr %1, ptr %4, align 8, !tbaa !358
  %5 = load ptr, ptr %3, align 8
  %6 = getelementptr inbounds nuw %"class.pbrt::TaggedPointer.80", ptr %5, i32 0, i32 0
  store i64 0, ptr %6, align 8, !tbaa !900
  %7 = load ptr, ptr %4, align 8, !tbaa !358
  %8 = getelementptr inbounds nuw %"class.pbrt::TaggedPointer.80", ptr %7, i32 0, i32 0
  %9 = load i64, ptr %8, align 8, !tbaa !900
  %10 = getelementptr inbounds nuw %"class.pbrt::TaggedPointer.80", ptr %5, i32 0, i32 0
  store i64 %9, ptr %10, align 8, !tbaa !900
  ret void
}

; Function Attrs: mustprogress nounwind uwtable
define linkonce_odr dso_local void @_ZN4pbrt13TaggedPointerIJNS_17HomogeneousMediumENS_10GridMediumENS_13RGBGridMediumENS_11CloudMediumENS_13NanoVDBMediumEEEC2ERKS6_(ptr noundef nonnull align 8 dereferenceable(8) %0, ptr noundef nonnull align 8 dereferenceable(8) %1) unnamed_addr #6 comdat align 2 {
  %3 = alloca ptr, align 8
  %4 = alloca ptr, align 8
  store ptr %0, ptr %3, align 8, !tbaa !619
  store ptr %1, ptr %4, align 8, !tbaa !619
  %5 = load ptr, ptr %3, align 8
  %6 = getelementptr inbounds nuw %"class.pbrt::TaggedPointer", ptr %5, i32 0, i32 0
  store i64 0, ptr %6, align 8, !tbaa !621
  %7 = load ptr, ptr %4, align 8, !tbaa !619
  %8 = getelementptr inbounds nuw %"class.pbrt::TaggedPointer", ptr %7, i32 0, i32 0
  %9 = load i64, ptr %8, align 8, !tbaa !621
  %10 = getelementptr inbounds nuw %"class.pbrt::TaggedPointer", ptr %5, i32 0, i32 0
  store i64 %9, ptr %10, align 8, !tbaa !621
  ret void
}

; Function Attrs: mustprogress nounwind uwtable
define linkonce_odr dso_local void @_ZN4pbrt13TaggedPointerIJNS_10PointLightENS_12DistantLightENS_15ProjectionLightENS_16GoniometricLightENS_9SpotLightENS_16DiffuseAreaLightENS_20UniformInfiniteLightENS_18ImageInfiniteLightENS_24PortalImageInfiniteLightEEEC2EDn(ptr noundef nonnull align 8 dereferenceable(8) %0, ptr %1) unnamed_addr #6 comdat align 2 {
  %3 = alloca ptr, align 8
  %4 = alloca ptr, align 8
  store ptr %0, ptr %3, align 8, !tbaa !477
  store ptr %1, ptr %4, align 8, !tbaa !184
  %5 = load ptr, ptr %3, align 8
  %6 = getelementptr inbounds nuw %"class.pbrt::TaggedPointer.102", ptr %5, i32 0, i32 0
  store i64 0, ptr %6, align 8, !tbaa !481
  ret void
}

; Function Attrs: mustprogress nounwind uwtable
define linkonce_odr dso_local noundef zeroext i1 @_ZNK4pbrt13TaggedPointerIJNS_10PointLightENS_12DistantLightENS_15ProjectionLightENS_16GoniometricLightENS_9SpotLightENS_16DiffuseAreaLightENS_20UniformInfiniteLightENS_18ImageInfiniteLightENS_24PortalImageInfiniteLightEEEcvbEv(ptr noundef nonnull align 8 dereferenceable(8) %0) #6 comdat align 2 {
  %2 = alloca ptr, align 8
  store ptr %0, ptr %2, align 8, !tbaa !477
  %3 = load ptr, ptr %2, align 8
  %4 = getelementptr inbounds nuw %"class.pbrt::TaggedPointer.102", ptr %3, i32 0, i32 0
  %5 = load i64, ptr %4, align 8, !tbaa !481
  %6 = and i64 %5, 144115188075855871
  %7 = icmp ne i64 %6, 0
  ret i1 %7
}

; Function Attrs: inlinehint mustprogress uwtable
define linkonce_odr dso_local noundef nonnull align 8 dereferenceable(8) ptr @_ZN4pbrt5LightaSEOS0_(ptr noundef nonnull align 8 dereferenceable(8) %0, ptr noundef nonnull align 8 dereferenceable(8) %1) #5 comdat align 2 {
  %3 = alloca ptr, align 8
  %4 = alloca ptr, align 8
  store ptr %0, ptr %3, align 8, !tbaa !475
  store ptr %1, ptr %4, align 8, !tbaa !475
  %5 = load ptr, ptr %3, align 8
  %6 = load ptr, ptr %4, align 8, !tbaa !475
  %7 = call noundef nonnull align 8 dereferenceable(8) ptr @_ZN4pbrt13TaggedPointerIJNS_10PointLightENS_12DistantLightENS_15ProjectionLightENS_16GoniometricLightENS_9SpotLightENS_16DiffuseAreaLightENS_20UniformInfiniteLightENS_18ImageInfiniteLightENS_24PortalImageInfiniteLightEEEaSERKSA_(ptr noundef nonnull align 8 dereferenceable(8) %5, ptr noundef nonnull align 8 dereferenceable(8) %6)
  ret ptr %5
}

; Function Attrs: inlinehint mustprogress uwtable
define linkonce_odr dso_local void @_ZN4pbrt5LightCI2NS_13TaggedPointerIJNS_10PointLightENS_12DistantLightENS_15ProjectionLightENS_16GoniometricLightENS_9SpotLightENS_16DiffuseAreaLightENS_20UniformInfiniteLightENS_18ImageInfiniteLightENS_24PortalImageInfiniteLightEEEEIS7_EEPT_(ptr noundef nonnull align 8 dereferenceable(8) %0, ptr noundef %1) unnamed_addr #5 comdat align 2 {
  %3 = alloca ptr, align 8
  %4 = alloca ptr, align 8
  store ptr %0, ptr %3, align 8, !tbaa !475
  store ptr %1, ptr %4, align 8, !tbaa !336
  %5 = load ptr, ptr %3, align 8
  %6 = load ptr, ptr %4, align 8, !tbaa !336
  call void @_ZN4pbrt13TaggedPointerIJNS_10PointLightENS_12DistantLightENS_15ProjectionLightENS_16GoniometricLightENS_9SpotLightENS_16DiffuseAreaLightENS_20UniformInfiniteLightENS_18ImageInfiniteLightENS_24PortalImageInfiniteLightEEEC2IS6_EEPT_(ptr noundef nonnull align 8 dereferenceable(8) %5, ptr noundef %6)
  ret void
}

; Function Attrs: inlinehint mustprogress uwtable
define linkonce_odr dso_local void @_ZN4pbrt12FloatTextureC2ERKS0_(ptr noundef nonnull align 8 dereferenceable(8) %0, ptr noundef nonnull align 8 dereferenceable(8) %1) unnamed_addr #5 comdat align 2 {
  %3 = alloca ptr, align 8
  %4 = alloca ptr, align 8
  store ptr %0, ptr %3, align 8, !tbaa !340
  store ptr %1, ptr %4, align 8, !tbaa !340
  %5 = load ptr, ptr %3, align 8
  %6 = load ptr, ptr %4, align 8, !tbaa !340
  call void @_ZN4pbrt13TaggedPointerIJNS_17FloatImageTextureENS_20GPUFloatImageTextureENS_15FloatMixTextureENS_24FloatDirectionMixTextureENS_18FloatScaledTextureENS_20FloatConstantTextureENS_18FloatBilerpTextureENS_24FloatCheckerboardTextureENS_16FloatDotsTextureENS_10FBmTextureENS_16FloatPtexTextureENS_19GPUFloatPtexTextureENS_12WindyTextureENS_15WrinkledTextureEEEC2ERKSF_(ptr noundef nonnull align 8 dereferenceable(8) %5, ptr noundef nonnull align 8 dereferenceable(8) %6)
  ret void
}

; Function Attrs: inlinehint mustprogress uwtable
define linkonce_odr dso_local void @_ZN4pbrt5ShapeC2ERKS0_(ptr noundef nonnull align 8 dereferenceable(8) %0, ptr noundef nonnull align 8 dereferenceable(8) %1) unnamed_addr #5 comdat align 2 {
  %3 = alloca ptr, align 8
  %4 = alloca ptr, align 8
  store ptr %0, ptr %3, align 8, !tbaa !338
  store ptr %1, ptr %4, align 8, !tbaa !338
  %5 = load ptr, ptr %3, align 8
  %6 = load ptr, ptr %4, align 8, !tbaa !338
  call void @_ZN4pbrt13TaggedPointerIJNS_6SphereENS_8CylinderENS_4DiskENS_8TriangleENS_13BilinearPatchENS_5CurveEEEC2ERKS7_(ptr noundef nonnull align 8 dereferenceable(8) %5, ptr noundef nonnull align 8 dereferenceable(8) %6)
  ret void
}

; Function Attrs: mustprogress nounwind uwtable
define linkonce_odr dso_local noundef ptr @_ZNK4pbrt19ParameterDictionary10ColorSpaceEv(ptr noundef nonnull align 8 dereferenceable(108) %0) #6 comdat align 2 {
  %2 = alloca ptr, align 8
  store ptr %0, ptr %2, align 8, !tbaa !163
  %3 = load ptr, ptr %2, align 8
  %4 = getelementptr inbounds nuw %"class.pbrt::ParameterDictionary", ptr %3, i32 0, i32 1
  %5 = load ptr, ptr %4, align 8, !tbaa !491
  ret ptr %5
}

; Function Attrs: inlinehint mustprogress uwtable
define linkonce_odr dso_local void @_ZN4pbrt6MediumC2ERKS0_(ptr noundef nonnull align 8 dereferenceable(8) %0, ptr noundef nonnull align 8 dereferenceable(8) %1) unnamed_addr #5 comdat align 2 {
  %3 = alloca ptr, align 8
  %4 = alloca ptr, align 8
  store ptr %0, ptr %3, align 8, !tbaa !148
  store ptr %1, ptr %4, align 8, !tbaa !148
  %5 = load ptr, ptr %3, align 8
  %6 = load ptr, ptr %4, align 8, !tbaa !148
  call void @_ZN4pbrt13TaggedPointerIJNS_17HomogeneousMediumENS_10GridMediumENS_13RGBGridMediumENS_11CloudMediumENS_13NanoVDBMediumEEEC2ERKS6_(ptr noundef nonnull align 8 dereferenceable(8) %5, ptr noundef nonnull align 8 dereferenceable(8) %6)
  ret void
}

; Function Attrs: inlinehint mustprogress nounwind uwtable
define linkonce_odr dso_local noundef zeroext i1 @_ZSteqIcSt11char_traitsIcESaIcEEbRKNSt7__cxx1112basic_stringIT_T0_T1_EEPKS5_(ptr noundef nonnull align 8 dereferenceable(32) %0, ptr noundef %1) #3 comdat {
  %3 = alloca ptr, align 8
  %4 = alloca ptr, align 8
  store ptr %0, ptr %3, align 8, !tbaa !36
  store ptr %1, ptr %4, align 8, !tbaa !16
  %5 = load ptr, ptr %3, align 8, !tbaa !36
  %6 = load ptr, ptr %4, align 8, !tbaa !16
  %7 = call noundef i32 @_ZNKSt7__cxx1112basic_stringIcSt11char_traitsIcESaIcEE7compareEPKc(ptr noundef nonnull align 8 dereferenceable(32) %5, ptr noundef %6) #22
  %8 = icmp eq i32 %7, 0
  ret i1 %8
}

; Function Attrs: inlinehint mustprogress uwtable
define linkonce_odr dso_local void @_ZN4pbrt5LightCI2NS_13TaggedPointerIJNS_10PointLightENS_12DistantLightENS_15ProjectionLightENS_16GoniometricLightENS_9SpotLightENS_16DiffuseAreaLightENS_20UniformInfiniteLightENS_18ImageInfiniteLightENS_24PortalImageInfiniteLightEEEEEDn(ptr noundef nonnull align 8 dereferenceable(8) %0, ptr %1) unnamed_addr #5 comdat align 2 {
  %3 = alloca ptr, align 8
  %4 = alloca ptr, align 8
  store ptr %0, ptr %3, align 8, !tbaa !475
  store ptr %1, ptr %4, align 8, !tbaa !184
  %5 = load ptr, ptr %3, align 8
  %6 = load ptr, ptr %4, align 8, !tbaa !184
  call void @_ZN4pbrt13TaggedPointerIJNS_10PointLightENS_12DistantLightENS_15ProjectionLightENS_16GoniometricLightENS_9SpotLightENS_16DiffuseAreaLightENS_20UniformInfiniteLightENS_18ImageInfiniteLightENS_24PortalImageInfiniteLightEEEC2EDn(ptr noundef nonnull align 8 dereferenceable(8) %5, ptr %6)
  ret void
}

; Function Attrs: mustprogress uwtable
define dso_local void @_ZN4pbrt5Light10CreateAreaERKNSt7__cxx1112basic_stringIcSt11char_traitsIcESaIcEEERKNS_19ParameterDictionaryERKNS_9TransformERKNS_15MediumInterfaceENS_5ShapeENS_12FloatTextureEPKNS_7FileLocEN4pstd3pmr21polymorphic_allocatorISt4byteEE(ptr dead_on_unwind noalias writable sret(%"class.pbrt::Light") align 8 %0, ptr noundef nonnull align 8 dereferenceable(32) %1, ptr noundef nonnull align 8 dereferenceable(108) %2, ptr noundef nonnull align 4 dereferenceable(128) %3, ptr noundef nonnull align 8 dereferenceable(16) %4, ptr noundef %5, ptr noundef %6, ptr noundef %7, i64 %8) #1 align 2 {
  %10 = alloca ptr, align 8
  %11 = alloca %"class.pstd::pmr::polymorphic_allocator", align 8
  %12 = alloca ptr, align 8
  %13 = alloca ptr, align 8
  %14 = alloca ptr, align 8
  %15 = alloca ptr, align 8
  %16 = alloca ptr, align 8
  %17 = alloca ptr, align 8
  %18 = alloca ptr, align 8
  %19 = alloca %"class.pbrt::Light", align 8
  %20 = alloca %"class.pbrt::Medium", align 8
  %21 = alloca %"class.pstd::pmr::polymorphic_allocator", align 8
  %22 = alloca %"class.pbrt::Shape", align 8
  %23 = alloca %"class.pbrt::FloatTexture", align 8
  store ptr %0, ptr %10, align 8
  %24 = getelementptr inbounds nuw %"class.pstd::pmr::polymorphic_allocator", ptr %11, i32 0, i32 0
  %25 = inttoptr i64 %8 to ptr
  store ptr %25, ptr %24, align 8
  store ptr %1, ptr %12, align 8, !tbaa !36
  store ptr %2, ptr %13, align 8, !tbaa !163
  store ptr %3, ptr %14, align 8, !tbaa !40
  store ptr %4, ptr %15, align 8, !tbaa !42
  store ptr %5, ptr %16, align 8, !tbaa !338
  store ptr %6, ptr %17, align 8, !tbaa !340
  store ptr %7, ptr %18, align 8, !tbaa !167
  call void @_ZN4pbrt5LightCI2NS_13TaggedPointerIJNS_10PointLightENS_12DistantLightENS_15ProjectionLightENS_16GoniometricLightENS_9SpotLightENS_16DiffuseAreaLightENS_20UniformInfiniteLightENS_18ImageInfiniteLightENS_24PortalImageInfiniteLightEEEEEDn(ptr noundef nonnull align 8 dereferenceable(8) %0, ptr null)
  %26 = load ptr, ptr %12, align 8, !tbaa !36
  %27 = call noundef zeroext i1 @_ZSteqIcSt11char_traitsIcESaIcEEbRKNSt7__cxx1112basic_stringIT_T0_T1_EEPKS5_(ptr noundef nonnull align 8 dereferenceable(32) %26, ptr noundef @.str.98)
  br i1 %27, label %28, label %40

28:                                               ; preds = %9
  call void @llvm.lifetime.start.p0(i64 8, ptr %19) #22
  %29 = load ptr, ptr %14, align 8, !tbaa !40
  %30 = load ptr, ptr %15, align 8, !tbaa !42
  %31 = getelementptr inbounds nuw %"struct.pbrt::MediumInterface", ptr %30, i32 0, i32 1
  call void @_ZN4pbrt6MediumC2ERKS0_(ptr noundef nonnull align 8 dereferenceable(8) %20, ptr noundef nonnull align 8 dereferenceable(8) %31)
  %32 = load ptr, ptr %13, align 8, !tbaa !163
  %33 = load ptr, ptr %13, align 8, !tbaa !163
  %34 = call noundef ptr @_ZNK4pbrt19ParameterDictionary10ColorSpaceEv(ptr noundef nonnull align 8 dereferenceable(108) %33)
  %35 = load ptr, ptr %18, align 8, !tbaa !167
  call void @llvm.memcpy.p0.p0.i64(ptr align 8 %21, ptr align 8 %11, i64 8, i1 false), !tbaa.struct !86
  call void @_ZN4pbrt5ShapeC2ERKS0_(ptr noundef nonnull align 8 dereferenceable(8) %22, ptr noundef nonnull align 8 dereferenceable(8) %5)
  call void @_ZN4pbrt12FloatTextureC2ERKS0_(ptr noundef nonnull align 8 dereferenceable(8) %23, ptr noundef nonnull align 8 dereferenceable(8) %6)
  %36 = getelementptr inbounds nuw %"class.pstd::pmr::polymorphic_allocator", ptr %21, i32 0, i32 0
  %37 = load ptr, ptr %36, align 8
  %38 = call noundef ptr @_ZN4pbrt16DiffuseAreaLight6CreateERKNS_9TransformENS_6MediumERKNS_19ParameterDictionaryEPKNS_13RGBColorSpaceEPKNS_7FileLocEN4pstd3pmr21polymorphic_allocatorISt4byteEENS_5ShapeENS_12FloatTextureE(ptr noundef nonnull align 4 dereferenceable(128) %29, ptr noundef %20, ptr noundef nonnull align 8 dereferenceable(108) %32, ptr noundef %34, ptr noundef %35, ptr %37, ptr noundef %22, ptr noundef %23)
  call void @_ZN4pbrt5LightCI2NS_13TaggedPointerIJNS_10PointLightENS_12DistantLightENS_15ProjectionLightENS_16GoniometricLightENS_9SpotLightENS_16DiffuseAreaLightENS_20UniformInfiniteLightENS_18ImageInfiniteLightENS_24PortalImageInfiniteLightEEEEIS7_EEPT_(ptr noundef nonnull align 8 dereferenceable(8) %19, ptr noundef %38)
  %39 = call noundef nonnull align 8 dereferenceable(8) ptr @_ZN4pbrt5LightaSEOS0_(ptr noundef nonnull align 8 dereferenceable(8) %0, ptr noundef nonnull align 8 dereferenceable(8) %19)
  call void @llvm.lifetime.end.p0(i64 8, ptr %19) #22
  br label %43

40:                                               ; preds = %9
  %41 = load ptr, ptr %18, align 8, !tbaa !167
  %42 = load ptr, ptr %12, align 8, !tbaa !36
  call void @_ZN4pbrt9ErrorExitIJRKNSt7__cxx1112basic_stringIcSt11char_traitsIcESaIcEEEEEEvPKNS_7FileLocEPKcDpOT_(ptr noundef %41, ptr noundef @.str.99, ptr noundef nonnull align 8 dereferenceable(32) %42) #23
  unreachable

43:                                               ; preds = %28
  %44 = call noundef zeroext i1 @_ZNK4pbrt13TaggedPointerIJNS_10PointLightENS_12DistantLightENS_15ProjectionLightENS_16GoniometricLightENS_9SpotLightENS_16DiffuseAreaLightENS_20UniformInfiniteLightENS_18ImageInfiniteLightENS_24PortalImageInfiniteLightEEEcvbEv(ptr noundef nonnull align 8 dereferenceable(8) %0)
  br i1 %44, label %48, label %45

45:                                               ; preds = %43
  %46 = load ptr, ptr %18, align 8, !tbaa !167
  %47 = load ptr, ptr %12, align 8, !tbaa !36
  call void @_ZN4pbrt9ErrorExitIJRKNSt7__cxx1112basic_stringIcSt11char_traitsIcESaIcEEEEEEvPKNS_7FileLocEPKcDpOT_(ptr noundef %46, ptr noundef @.str.100, ptr noundef nonnull align 8 dereferenceable(32) %47) #23
  unreachable

48:                                               ; preds = %43
  %49 = load ptr, ptr %13, align 8, !tbaa !163
  call void @_ZNK4pbrt19ParameterDictionary12ReportUnusedEv(ptr noundef nonnull align 8 dereferenceable(108) %49)
  ret void
}