; Function Attrs: mustprogress uwtable
define dso_local void @_ZN4pbrt5Light10CreateAreaERKNSt7__cxx1112basic_stringIcSt11char_traitsIcESaIcEEERKNS_19ParameterDictionaryERKNS_9TransformERKNS_15MediumInterfaceENS_5ShapeENS_12FloatTextureEPKNS_7FileLocEN4pstd3pmr21polymorphic_allocatorISt4byteEE(ptr dead_on_unwind noalias writable writeonly sret(%"class.pbrt::Light") align 8 captures(none) %0, ptr noundef nonnull align 8 dereferenceable(32) %1, ptr noundef nonnull align 8 dereferenceable(108) %2, ptr noundef nonnull align 4 dereferenceable(128) %3, ptr noundef nonnull readonly align 8 captures(none) dereferenceable(16) %4, ptr noundef readonly captures(none) %5, ptr noundef readonly captures(none) %6, ptr noundef %7, i64 %8) local_unnamed_addr #2 align 2 {
  %10 = alloca %"class.pbrt::Medium", align 8
  %11 = alloca %"class.pbrt::Shape", align 8
  %12 = alloca %"class.pbrt::FloatTexture", align 8
  %13 = tail call noundef i32 @_ZNKSt7__cxx1112basic_stringIcSt11char_traitsIcESaIcEE7compareEPKc(ptr noundef nonnull align 8 dereferenceable(32) %1, ptr noundef nonnull @.str.98) #38
  %14 = icmp eq i32 %13, 0
  br i1 %14, label %15, label %27

15:                                               ; preds = %9
  %16 = inttoptr i64 %8 to ptr
  %17 = getelementptr inbounds nuw i8, ptr %4, i64 8
  %18 = load i64, ptr %17, align 8, !tbaa !31
  store i64 %18, ptr %10, align 8, !tbaa !31
  %19 = getelementptr inbounds nuw i8, ptr %2, i64 96
  %20 = load ptr, ptr %19, align 8, !tbaa !629
  %21 = load i64, ptr %5, align 8, !tbaa !365
  store i64 %21, ptr %11, align 8, !tbaa !365
  %22 = load i64, ptr %6, align 8, !tbaa !361
  store i64 %22, ptr %12, align 8, !tbaa !361
  %23 = call noundef ptr @_ZN4pbrt16DiffuseAreaLight6CreateERKNS_9TransformENS_6MediumERKNS_19ParameterDictionaryEPKNS_13RGBColorSpaceEPKNS_7FileLocEN4pstd3pmr21polymorphic_allocatorISt4byteEENS_5ShapeENS_12FloatTextureE(ptr noundef nonnull align 4 dereferenceable(128) %3, ptr noundef nonnull %10, ptr noundef nonnull align 8 dereferenceable(108) %2, ptr noundef %20, ptr noundef %7, ptr %16, ptr noundef nonnull %11, ptr noundef nonnull %12)
  %24 = ptrtoint ptr %23 to i64
  %25 = or i64 %24, 864691128455135232
  store i64 %25, ptr %0, align 8, !tbaa !601
  %26 = and i64 %24, 144115188075855871
  %.not = icmp eq i64 %26, 0
  br i1 %.not, label %28, label %29

27:                                               ; preds = %9
  tail call void @_ZN4pbrt9ErrorExitIJRKNSt7__cxx1112basic_stringIcSt11char_traitsIcESaIcEEEEEEvPKNS_7FileLocEPKcDpOT_(ptr noundef %7, ptr noundef nonnull @.str.99, ptr noundef nonnull align 8 dereferenceable(32) %1) #37
  unreachable

28:                                               ; preds = %15
  call void @_ZN4pbrt9ErrorExitIJRKNSt7__cxx1112basic_stringIcSt11char_traitsIcESaIcEEEEEEvPKNS_7FileLocEPKcDpOT_(ptr noundef %7, ptr noundef nonnull @.str.100, ptr noundef nonnull align 8 dereferenceable(32) %1) #37
  unreachable

29:                                               ; preds = %15
  call void @_ZNK4pbrt19ParameterDictionary12ReportUnusedEv(ptr noundef nonnull align 8 dereferenceable(108) %2)
  ret void
}